target datalayout = "e-m:e-p270:32:32-p271:32:32-p272:64:64-i64:64-i128:128-f80:128-n8:16:32:64-S128"
target triple = "x86_64-pc-linux-gnu"

%struct.Vec_Int_t_ = type { i32, i32, ptr }

; Function Attrs: inlinehint nounwind uwtable
define internal i32 @Vec_IntEntry(ptr noundef %0, i32 noundef %1) #2 {
  %3 = alloca ptr, align 8
  %4 = alloca i32, align 4
  store ptr %0, ptr %3, align 8, !tbaa !20
  store i32 %1, ptr %4, align 4, !tbaa !19
  %5 = load ptr, ptr %3, align 8, !tbaa !20
  %6 = getelementptr inbounds nuw %struct.Vec_Int_t_, ptr %5, i32 0, i32 2
  %7 = load ptr, ptr %6, align 8, !tbaa !43
  %8 = load i32, ptr %4, align 4, !tbaa !19
  %9 = sext i32 %8 to i64
  %10 = getelementptr inbounds i32, ptr %7, i64 %9
  %11 = load i32, ptr %10, align 4, !tbaa !19
  ret i32 %11
}

; Function Attrs: inlinehint nounwind uwtable
define internal i32 @Vec_IntSize(ptr noundef %0) #2 {
  %2 = alloca ptr, align 8
  store ptr %0, ptr %2, align 8, !tbaa !20
  %3 = load ptr, ptr %2, align 8, !tbaa !20
  %4 = getelementptr inbounds nuw %struct.Vec_Int_t_, ptr %3, i32 0, i32 1
  %5 = load i32, ptr %4, align 4, !tbaa !41
  ret i32 %5
}

; Function Attrs: nounwind uwtable
define i32 @Cnf_IsopCountLiterals(ptr noundef %0, i32 noundef %1) #0 {
  %3 = alloca ptr, align 8
  %4 = alloca i32, align 4
  %5 = alloca i32, align 4
  %6 = alloca i32, align 4
  %7 = alloca i32, align 4
  %8 = alloca i32, align 4
  store ptr %0, ptr %3, align 8, !tbaa !20
  store i32 %1, ptr %4, align 4, !tbaa !19
  call void @llvm.lifetime.start.p0(i64 4, ptr %5) #8
  store i32 0, ptr %5, align 4, !tbaa !19
  call void @llvm.lifetime.start.p0(i64 4, ptr %6) #8
  call void @llvm.lifetime.start.p0(i64 4, ptr %7) #8
  call void @llvm.lifetime.start.p0(i64 4, ptr %8) #8
  store i32 0, ptr %7, align 4, !tbaa !19
  br label %9

9:                                                ; preds = %43, %2
  %10 = load i32, ptr %7, align 4, !tbaa !19
  %11 = load ptr, ptr %3, align 8, !tbaa !20
  %12 = call i32 @Vec_IntSize(ptr noundef %11)
  %13 = icmp slt i32 %10, %12
  br i1 %13, label %14, label %18

14:                                               ; preds = %9
  %15 = load ptr, ptr %3, align 8, !tbaa !20
  %16 = load i32, ptr %7, align 4, !tbaa !19
  %17 = call i32 @Vec_IntEntry(ptr noundef %15, i32 noundef %16)
  store i32 %17, ptr %6, align 4, !tbaa !19
  br label %18

18:                                               ; preds = %14, %9
  %19 = phi i1 [ false, %9 ], [ true, %14 ]
  br i1 %19, label %20, label %46

20:                                               ; preds = %18
  store i32 0, ptr %8, align 4, !tbaa !19
  br label %21

21:                                               ; preds = %39, %20
  %22 = load i32, ptr %8, align 4, !tbaa !19
  %23 = load i32, ptr %4, align 4, !tbaa !19
  %24 = icmp slt i32 %22, %23
  br i1 %24, label %25, label %42

25:                                               ; preds = %21
  %26 = load i32, ptr %6, align 4, !tbaa !19
  %27 = and i32 %26, 3
  %28 = icmp eq i32 %27, 1
  br i1 %28, label %33, label %29

29:                                               ; preds = %25
  %30 = load i32, ptr %6, align 4, !tbaa !19
  %31 = and i32 %30, 3
  %32 = icmp eq i32 %31, 2
  br i1 %32, label %33, label %36

33:                                               ; preds = %29, %25
  %34 = load i32, ptr %5, align 4, !tbaa !19
  %35 = add nsw i32 %34, 1
  store i32 %35, ptr %5, align 4, !tbaa !19
  br label %36

36:                                               ; preds = %33, %29
  %37 = load i32, ptr %6, align 4, !tbaa !19
  %38 = ashr i32 %37, 2
  store i32 %38, ptr %6, align 4, !tbaa !19
  br label %39

39:                                               ; preds = %36
  %40 = load i32, ptr %8, align 4, !tbaa !19
  %41 = add nsw i32 %40, 1
  store i32 %41, ptr %8, align 4, !tbaa !19
  br label %21, !llvm.loop !57

42:                                               ; preds = %21
  br label %43

43:                                               ; preds = %42
  %44 = load i32, ptr %7, align 4, !tbaa !19
  %45 = add nsw i32 %44, 1
  store i32 %45, ptr %7, align 4, !tbaa !19
  br label %9, !llvm.loop !58

46:                                               ; preds = %18
  %47 = load i32, ptr %5, align 4, !tbaa !19
  call void @llvm.lifetime.end.p0(i64 4, ptr %8) #8
  call void @llvm.lifetime.end.p0(i64 4, ptr %7) #8
  call void @llvm.lifetime.end.p0(i64 4, ptr %6) #8
  call void @llvm.lifetime.end.p0(i64 4, ptr %5) #8
  ret i32 %47
}