; Function Attrs: nofree norecurse nosync nounwind memory(read, inaccessiblemem: none) uwtable
define i32 @Cnf_IsopCountLiterals(ptr noundef readonly captures(none) %0, i32 noundef %1) local_unnamed_addr #3 {
  %3 = getelementptr i8, ptr %0, i64 4
  %.val = load i32, ptr %3, align 4, !tbaa !30
  %4 = icmp sgt i32 %.val, 0
  br i1 %4, label %.lr.ph23, label %.critedge

.lr.ph23:                                         ; preds = %2
  %5 = getelementptr i8, ptr %0, i64 8
  %.val16 = load ptr, ptr %5, align 8, !tbaa !29
  %6 = icmp sgt i32 %1, 0
  br i1 %6, label %.lr.ph.us.preheader, label %.critedge

.lr.ph.us.preheader:                              ; preds = %.lr.ph23
  %wide.trip.count = zext nneg i32 %.val to i64
  br label %.lr.ph.us

.lr.ph.us:                                        ; preds = %.lr.ph.us.preheader, %._crit_edge.us
  %indvars.iv = phi i64 [ 0, %.lr.ph.us.preheader ], [ %indvars.iv.next, %._crit_edge.us ]
  %.01420.us = phi i32 [ 0, %.lr.ph.us.preheader ], [ %spec.select.us, %._crit_edge.us ]
  %7 = getelementptr inbounds nuw i32, ptr %.val16, i64 %indvars.iv
  %8 = load i32, ptr %7, align 4, !tbaa !35
  br label %9

9:                                                ; preds = %.lr.ph.us, %9
  %.019.us = phi i32 [ 0, %.lr.ph.us ], [ %13, %9 ]
  %.01318.us = phi i32 [ %8, %.lr.ph.us ], [ %12, %9 ]
  %.117.us = phi i32 [ %.01420.us, %.lr.ph.us ], [ %spec.select.us, %9 ]
  %10 = and i32 %.01318.us, 3
  %.off.us = add nsw i32 %10, -1
  %switch.us = icmp ult i32 %.off.us, 2
  %11 = zext i1 %switch.us to i32
  %spec.select.us = add nsw i32 %.117.us, %11
  %12 = ashr i32 %.01318.us, 2
  %13 = add nuw nsw i32 %.019.us, 1
  %exitcond.not = icmp eq i32 %13, %1
  br i1 %exitcond.not, label %._crit_edge.us, label %9, !llvm.loop !48

._crit_edge.us:                                   ; preds = %9
  %indvars.iv.next = add nuw nsw i64 %indvars.iv, 1
  %exitcond27.not = icmp eq i64 %indvars.iv.next, %wide.trip.count
  br i1 %exitcond27.not, label %.critedge, label %.lr.ph.us, !llvm.loop !49

.critedge:                                        ; preds = %._crit_edge.us, %.lr.ph23, %2
  %.014.lcssa = phi i32 [ 0, %2 ], [ 0, %.lr.ph23 ], [ %spec.select.us, %._crit_edge.us ]
  ret i32 %.014.lcssa
}